target datalayout = "e-m:e-p270:32:32-p271:32:32-p272:64:64-i64:64-i128:128-f80:128-n8:16:32:64-S128"
target triple = "x86_64-pc-linux-gnu"

%"struct.Luau::ErrorSuppression" = type { i32 }
%"struct.Luau::NotNull.131" = type { ptr }

; Function Attrs: mustprogress nounwind uwtable
define linkonce_odr dso_local noundef i32 @_ZNK4Luau16ErrorSuppressioncvNS0_5ValueEEv(ptr noundef nonnull align 4 dereferenceable(4) %0) #2 comdat align 2 {
  %2 = alloca ptr, align 8
  store ptr %0, ptr %2, align 8, !tbaa !214
  %3 = load ptr, ptr %2, align 8
  %4 = getelementptr inbounds nuw %"struct.Luau::ErrorSuppression", ptr %3, i32 0, i32 0
  %5 = load i32, ptr %4, align 4, !tbaa !218
  ret i32 %5
}

; Function Attrs: mustprogress uwtable
define dso_local i32 @_ZN4Luau20shouldSuppressErrorsENS_7NotNullINS_10NormalizerEEEPKNS_11TypePackVarES5_(ptr %0, ptr noundef %1, ptr noundef %2) #3 {
  %4 = alloca %"struct.Luau::ErrorSuppression", align 4
  %5 = alloca %"struct.Luau::NotNull.131", align 8
  %6 = alloca ptr, align 8
  %7 = alloca ptr, align 8
  %8 = alloca %"struct.Luau::ErrorSuppression", align 4
  %9 = alloca %"struct.Luau::NotNull.131", align 8
  %10 = alloca %"struct.Luau::NotNull.131", align 8
  %11 = alloca i32, align 4
  %12 = getelementptr inbounds nuw %"struct.Luau::NotNull.131", ptr %5, i32 0, i32 0
  store ptr %0, ptr %12, align 8
  store ptr %1, ptr %6, align 8, !tbaa !124
  store ptr %2, ptr %7, align 8, !tbaa !124
  call void @llvm.lifetime.start.p0(i64 4, ptr %8) #19
  call void @llvm.memcpy.p0.p0.i64(ptr align 8 %9, ptr align 8 %5, i64 8, i1 false), !tbaa.struct !222
  %13 = load ptr, ptr %6, align 8, !tbaa !124
  %14 = getelementptr inbounds nuw %"struct.Luau::NotNull.131", ptr %9, i32 0, i32 0
  %15 = load ptr, ptr %14, align 8
  %16 = call i32 @_ZN4Luau20shouldSuppressErrorsENS_7NotNullINS_10NormalizerEEEPKNS_11TypePackVarE(ptr %15, ptr noundef %13)
  %17 = getelementptr inbounds nuw %"struct.Luau::ErrorSuppression", ptr %8, i32 0, i32 0
  store i32 %16, ptr %17, align 4
  %18 = call noundef i32 @_ZNK4Luau16ErrorSuppressioncvNS0_5ValueEEv(ptr noundef nonnull align 4 dereferenceable(4) %8)
  %19 = icmp eq i32 %18, 1
  br i1 %19, label %20, label %26

20:                                               ; preds = %3
  call void @llvm.memcpy.p0.p0.i64(ptr align 8 %10, ptr align 8 %5, i64 8, i1 false), !tbaa.struct !222
  %21 = load ptr, ptr %7, align 8, !tbaa !124
  %22 = getelementptr inbounds nuw %"struct.Luau::NotNull.131", ptr %10, i32 0, i32 0
  %23 = load ptr, ptr %22, align 8
  %24 = call i32 @_ZN4Luau20shouldSuppressErrorsENS_7NotNullINS_10NormalizerEEEPKNS_11TypePackVarE(ptr %23, ptr noundef %21)
  %25 = getelementptr inbounds nuw %"struct.Luau::ErrorSuppression", ptr %4, i32 0, i32 0
  store i32 %24, ptr %25, align 4
  store i32 1, ptr %11, align 4
  br label %27

26:                                               ; preds = %3
  call void @llvm.memcpy.p0.p0.i64(ptr align 4 %4, ptr align 4 %8, i64 4, i1 false), !tbaa.struct !228
  store i32 1, ptr %11, align 4
  br label %27

27:                                               ; preds = %26, %20
  call void @llvm.lifetime.end.p0(i64 4, ptr %8) #19
  %28 = getelementptr inbounds nuw %"struct.Luau::ErrorSuppression", ptr %4, i32 0, i32 0
  %29 = load i32, ptr %28, align 4
  ret i32 %29
}