; Function Attrs: mustprogress uwtable
define dso_local range(i32 0, 3) i32 @_ZN4Luau20shouldSuppressErrorsENS_7NotNullINS_10NormalizerEEEPKNS_11TypePackVarES5_(ptr %0, ptr noundef %1, ptr noundef %2) local_unnamed_addr #3 {
  %4 = tail call i32 @_ZN4Luau20shouldSuppressErrorsENS_7NotNullINS_10NormalizerEEEPKNS_11TypePackVarE(ptr %0, ptr noundef %1)
  %5 = icmp eq i32 %4, 1
  br i1 %5, label %6, label %8

6:                                                ; preds = %3
  %7 = tail call i32 @_ZN4Luau20shouldSuppressErrorsENS_7NotNullINS_10NormalizerEEEPKNS_11TypePackVarE(ptr %0, ptr noundef %2)
  br label %8

8:                                                ; preds = %3, %6
  %.sroa.04.0 = phi i32 [ %7, %6 ], [ %4, %3 ]
  ret i32 %.sroa.04.0
}